target datalayout = "e-m:e-p270:32:32-p271:32:32-p272:64:64-i64:64-i128:128-f80:128-n8:16:32:64-S128"
target triple = "x86_64-pc-linux-gnu"

%struct.BITv05_DStream_t = type { i64, i32, ptr, ptr }

; Function Attrs: inlinehint nounwind uwtable
define internal i64 @MEM_swap64(i64 noundef %0) #5 {
  %2 = alloca i64, align 8
  store i64 %0, ptr %2, align 8, !tbaa !29
  %3 = load i64, ptr %2, align 8, !tbaa !29
  %4 = call i64 @llvm.bswap.i64(i64 %3)
  ret i64 %4
}

; Function Attrs: inlinehint nounwind uwtable
define internal i64 @MEM_read64(ptr noundef %0) #5 {
  %2 = alloca ptr, align 8
  store ptr %0, ptr %2, align 8, !tbaa !12
  %3 = load ptr, ptr %2, align 8, !tbaa !12
  %4 = load i64, ptr %3, align 1, !tbaa !29
  ret i64 %4
}

; Function Attrs: inlinehint nounwind uwtable
define internal i32 @MEM_swap32(i32 noundef %0) #5 {
  %2 = alloca i32, align 4
  store i32 %0, ptr %2, align 4, !tbaa !3
  %3 = load i32, ptr %2, align 4, !tbaa !3
  %4 = call i32 @llvm.bswap.i32(i32 %3)
  ret i32 %4
}

; Function Attrs: inlinehint nounwind uwtable
define internal i32 @MEM_read32(ptr noundef %0) #5 {
  %2 = alloca ptr, align 8
  store ptr %0, ptr %2, align 8, !tbaa !12
  %3 = load ptr, ptr %2, align 8, !tbaa !12
  %4 = load i32, ptr %3, align 1, !tbaa !3
  ret i32 %4
}

; Function Attrs: inlinehint nounwind uwtable
define internal i32 @MEM_isLittleEndian() #5 {
  ret i32 1
}

; Function Attrs: inlinehint nounwind uwtable
define internal i64 @MEM_readLE64(ptr noundef %0) #5 {
  %2 = alloca i64, align 8
  %3 = alloca ptr, align 8
  store ptr %0, ptr %3, align 8, !tbaa !12
  %4 = call i32 @MEM_isLittleEndian()
  %5 = icmp ne i32 %4, 0
  br i1 %5, label %6, label %9

6:                                                ; preds = %1
  %7 = load ptr, ptr %3, align 8, !tbaa !12
  %8 = call i64 @MEM_read64(ptr noundef %7)
  store i64 %8, ptr %2, align 8
  br label %13

9:                                                ; preds = %1
  %10 = load ptr, ptr %3, align 8, !tbaa !12
  %11 = call i64 @MEM_read64(ptr noundef %10)
  %12 = call i64 @MEM_swap64(i64 noundef %11)
  store i64 %12, ptr %2, align 8
  br label %13

13:                                               ; preds = %9, %6
  %14 = load i64, ptr %2, align 8
  ret i64 %14
}

; Function Attrs: inlinehint nounwind uwtable
define internal i32 @MEM_readLE32(ptr noundef %0) #5 {
  %2 = alloca i32, align 4
  %3 = alloca ptr, align 8
  store ptr %0, ptr %3, align 8, !tbaa !12
  %4 = call i32 @MEM_isLittleEndian()
  %5 = icmp ne i32 %4, 0
  br i1 %5, label %6, label %9

6:                                                ; preds = %1
  %7 = load ptr, ptr %3, align 8, !tbaa !12
  %8 = call i32 @MEM_read32(ptr noundef %7)
  store i32 %8, ptr %2, align 4
  br label %13

9:                                                ; preds = %1
  %10 = load ptr, ptr %3, align 8, !tbaa !12
  %11 = call i32 @MEM_read32(ptr noundef %10)
  %12 = call i32 @MEM_swap32(i32 noundef %11)
  store i32 %12, ptr %2, align 4
  br label %13

13:                                               ; preds = %9, %6
  %14 = load i32, ptr %2, align 4
  ret i32 %14
}

; Function Attrs: inlinehint nounwind uwtable
define internal i32 @MEM_32bits() #5 {
  ret i32 0
}

; Function Attrs: inlinehint nounwind uwtable
define internal i32 @BITv05_highbit32(i32 noundef %0) #5 {
  %2 = alloca i32, align 4
  store i32 %0, ptr %2, align 4, !tbaa !3
  %3 = load i32, ptr %2, align 4, !tbaa !3
  %4 = call i32 @llvm.ctlz.i32(i32 %3, i1 true)
  %5 = xor i32 %4, 31
  ret i32 %5
}

; Function Attrs: inlinehint nounwind uwtable
define internal i64 @MEM_readLEST(ptr noundef %0) #5 {
  %2 = alloca i64, align 8
  %3 = alloca ptr, align 8
  store ptr %0, ptr %3, align 8, !tbaa !12
  %4 = call i32 @MEM_32bits()
  %5 = icmp ne i32 %4, 0
  br i1 %5, label %6, label %10

6:                                                ; preds = %1
  %7 = load ptr, ptr %3, align 8, !tbaa !12
  %8 = call i32 @MEM_readLE32(ptr noundef %7)
  %9 = zext i32 %8 to i64
  store i64 %9, ptr %2, align 8
  br label %13

10:                                               ; preds = %1
  %11 = load ptr, ptr %3, align 8, !tbaa !12
  %12 = call i64 @MEM_readLE64(ptr noundef %11)
  store i64 %12, ptr %2, align 8
  br label %13

13:                                               ; preds = %10, %6
  %14 = load i64, ptr %2, align 8
  ret i64 %14
}

; Function Attrs: inlinehint nounwind uwtable
define internal i64 @BITv05_initDStream(ptr noundef %0, ptr noundef %1, i64 noundef %2) #5 {
  %4 = alloca i64, align 8
  %5 = alloca ptr, align 8
  %6 = alloca ptr, align 8
  %7 = alloca i64, align 8
  %8 = alloca i32, align 4
  %9 = alloca i32, align 4
  %10 = alloca i32, align 4
  store ptr %0, ptr %5, align 8, !tbaa !12
  store ptr %1, ptr %6, align 8, !tbaa !12
  store i64 %2, ptr %7, align 8, !tbaa !29
  %11 = load i64, ptr %7, align 8, !tbaa !29
  %12 = icmp ult i64 %11, 1
  br i1 %12, label %13, label %15

13:                                               ; preds = %3
  %14 = load ptr, ptr %5, align 8, !tbaa !12
  call void @llvm.memset.p0.i64(ptr align 8 %14, i8 0, i64 32, i1 false)
  store i64 -72, ptr %4, align 8
  br label %171

15:                                               ; preds = %3
  %16 = load i64, ptr %7, align 8, !tbaa !29
  %17 = icmp uge i64 %16, 8
  br i1 %17, label %18, label %52

18:                                               ; preds = %15
  call void @llvm.lifetime.start.p0(i64 4, ptr %8) #11
  %19 = load ptr, ptr %6, align 8, !tbaa !12
  %20 = load ptr, ptr %5, align 8, !tbaa !12
  %21 = getelementptr inbounds nuw %struct.BITv05_DStream_t, ptr %20, i32 0, i32 3
  store ptr %19, ptr %21, align 8, !tbaa !49
  %22 = load ptr, ptr %6, align 8, !tbaa !12
  %23 = load i64, ptr %7, align 8, !tbaa !29
  %24 = getelementptr inbounds nuw i8, ptr %22, i64 %23
  %25 = getelementptr inbounds i8, ptr %24, i64 -8
  %26 = load ptr, ptr %5, align 8, !tbaa !12
  %27 = getelementptr inbounds nuw %struct.BITv05_DStream_t, ptr %26, i32 0, i32 2
  store ptr %25, ptr %27, align 8, !tbaa !51
  %28 = load ptr, ptr %5, align 8, !tbaa !12
  %29 = getelementptr inbounds nuw %struct.BITv05_DStream_t, ptr %28, i32 0, i32 2
  %30 = load ptr, ptr %29, align 8, !tbaa !51
  %31 = call i64 @MEM_readLEST(ptr noundef %30)
  %32 = load ptr, ptr %5, align 8, !tbaa !12
  %33 = getelementptr inbounds nuw %struct.BITv05_DStream_t, ptr %32, i32 0, i32 0
  store i64 %31, ptr %33, align 8, !tbaa !52
  %34 = load ptr, ptr %6, align 8, !tbaa !12
  %35 = load i64, ptr %7, align 8, !tbaa !29
  %36 = sub i64 %35, 1
  %37 = getelementptr inbounds nuw i8, ptr %34, i64 %36
  %38 = load i8, ptr %37, align 1, !tbaa !24
  %39 = zext i8 %38 to i32
  store i32 %39, ptr %8, align 4, !tbaa !3
  %40 = load i32, ptr %8, align 4, !tbaa !3
  %41 = icmp eq i32 %40, 0
  br i1 %41, label %42, label %43

42:                                               ; preds = %18
  store i64 -1, ptr %4, align 8
  store i32 1, ptr %9, align 4
  br label %49

43:                                               ; preds = %18
  %44 = load i32, ptr %8, align 4, !tbaa !3
  %45 = call i32 @BITv05_highbit32(i32 noundef %44)
  %46 = sub i32 8, %45
  %47 = load ptr, ptr %5, align 8, !tbaa !12
  %48 = getelementptr inbounds nuw %struct.BITv05_DStream_t, ptr %47, i32 0, i32 1
  store i32 %46, ptr %48, align 8, !tbaa !53
  store i32 0, ptr %9, align 4
  br label %49

49:                                               ; preds = %43, %42
  call void @llvm.lifetime.end.p0(i64 4, ptr %8) #11
  %50 = load i32, ptr %9, align 4
  switch i32 %50, label %173 [
    i32 0, label %51
    i32 1, label %171
  ]

51:                                               ; preds = %49
  br label %169

52:                                               ; preds = %15
  call void @llvm.lifetime.start.p0(i64 4, ptr %10) #11
  %53 = load ptr, ptr %6, align 8, !tbaa !12
  %54 = load ptr, ptr %5, align 8, !tbaa !12
  %55 = getelementptr inbounds nuw %struct.BITv05_DStream_t, ptr %54, i32 0, i32 3
  store ptr %53, ptr %55, align 8, !tbaa !49
  %56 = load ptr, ptr %5, align 8, !tbaa !12
  %57 = getelementptr inbounds nuw %struct.BITv05_DStream_t, ptr %56, i32 0, i32 3
  %58 = load ptr, ptr %57, align 8, !tbaa !49
  %59 = load ptr, ptr %5, align 8, !tbaa !12
  %60 = getelementptr inbounds nuw %struct.BITv05_DStream_t, ptr %59, i32 0, i32 2
  store ptr %58, ptr %60, align 8, !tbaa !51
  %61 = load ptr, ptr %5, align 8, !tbaa !12
  %62 = getelementptr inbounds nuw %struct.BITv05_DStream_t, ptr %61, i32 0, i32 3
  %63 = load ptr, ptr %62, align 8, !tbaa !49
  %64 = load i8, ptr %63, align 1, !tbaa !24
  %65 = zext i8 %64 to i64
  %66 = load ptr, ptr %5, align 8, !tbaa !12
  %67 = getelementptr inbounds nuw %struct.BITv05_DStream_t, ptr %66, i32 0, i32 0
  store i64 %65, ptr %67, align 8, !tbaa !52
  %68 = load i64, ptr %7, align 8, !tbaa !29
  switch i64 %68, label %141 [
    i64 7, label %69
    i64 6, label %81
    i64 5, label %93
    i64 4, label %105
    i64 3, label %117
    i64 2, label %129
  ]

69:                                               ; preds = %52
  %70 = load ptr, ptr %5, align 8, !tbaa !12
  %71 = getelementptr inbounds nuw %struct.BITv05_DStream_t, ptr %70, i32 0, i32 3
  %72 = load ptr, ptr %71, align 8, !tbaa !49
  %73 = getelementptr inbounds i8, ptr %72, i64 6
  %74 = load i8, ptr %73, align 1, !tbaa !24
  %75 = zext i8 %74 to i64
  %76 = shl i64 %75, 48
  %77 = load ptr, ptr %5, align 8, !tbaa !12
  %78 = getelementptr inbounds nuw %struct.BITv05_DStream_t, ptr %77, i32 0, i32 0
  %79 = load i64, ptr %78, align 8, !tbaa !52
  %80 = add i64 %79, %76
  store i64 %80, ptr %78, align 8, !tbaa !52
  br label %81

81:                                               ; preds = %52, %69
  %82 = load ptr, ptr %5, align 8, !tbaa !12
  %83 = getelementptr inbounds nuw %struct.BITv05_DStream_t, ptr %82, i32 0, i32 3
  %84 = load ptr, ptr %83, align 8, !tbaa !49
  %85 = getelementptr inbounds i8, ptr %84, i64 5
  %86 = load i8, ptr %85, align 1, !tbaa !24
  %87 = zext i8 %86 to i64
  %88 = shl i64 %87, 40
  %89 = load ptr, ptr %5, align 8, !tbaa !12
  %90 = getelementptr inbounds nuw %struct.BITv05_DStream_t, ptr %89, i32 0, i32 0
  %91 = load i64, ptr %90, align 8, !tbaa !52
  %92 = add i64 %91, %88
  store i64 %92, ptr %90, align 8, !tbaa !52
  br label %93

93:                                               ; preds = %52, %81
  %94 = load ptr, ptr %5, align 8, !tbaa !12
  %95 = getelementptr inbounds nuw %struct.BITv05_DStream_t, ptr %94, i32 0, i32 3
  %96 = load ptr, ptr %95, align 8, !tbaa !49
  %97 = getelementptr inbounds i8, ptr %96, i64 4
  %98 = load i8, ptr %97, align 1, !tbaa !24
  %99 = zext i8 %98 to i64
  %100 = shl i64 %99, 32
  %101 = load ptr, ptr %5, align 8, !tbaa !12
  %102 = getelementptr inbounds nuw %struct.BITv05_DStream_t, ptr %101, i32 0, i32 0
  %103 = load i64, ptr %102, align 8, !tbaa !52
  %104 = add i64 %103, %100
  store i64 %104, ptr %102, align 8, !tbaa !52
  br label %105

105:                                              ; preds = %52, %93
  %106 = load ptr, ptr %5, align 8, !tbaa !12
  %107 = getelementptr inbounds nuw %struct.BITv05_DStream_t, ptr %106, i32 0, i32 3
  %108 = load ptr, ptr %107, align 8, !tbaa !49
  %109 = getelementptr inbounds i8, ptr %108, i64 3
  %110 = load i8, ptr %109, align 1, !tbaa !24
  %111 = zext i8 %110 to i64
  %112 = shl i64 %111, 24
  %113 = load ptr, ptr %5, align 8, !tbaa !12
  %114 = getelementptr inbounds nuw %struct.BITv05_DStream_t, ptr %113, i32 0, i32 0
  %115 = load i64, ptr %114, align 8, !tbaa !52
  %116 = add i64 %115, %112
  store i64 %116, ptr %114, align 8, !tbaa !52
  br label %117

117:                                              ; preds = %52, %105
  %118 = load ptr, ptr %5, align 8, !tbaa !12
  %119 = getelementptr inbounds nuw %struct.BITv05_DStream_t, ptr %118, i32 0, i32 3
  %120 = load ptr, ptr %119, align 8, !tbaa !49
  %121 = getelementptr inbounds i8, ptr %120, i64 2
  %122 = load i8, ptr %121, align 1, !tbaa !24
  %123 = zext i8 %122 to i64
  %124 = shl i64 %123, 16
  %125 = load ptr, ptr %5, align 8, !tbaa !12
  %126 = getelementptr inbounds nuw %struct.BITv05_DStream_t, ptr %125, i32 0, i32 0
  %127 = load i64, ptr %126, align 8, !tbaa !52
  %128 = add i64 %127, %124
  store i64 %128, ptr %126, align 8, !tbaa !52
  br label %129

129:                                              ; preds = %52, %117
  %130 = load ptr, ptr %5, align 8, !tbaa !12
  %131 = getelementptr inbounds nuw %struct.BITv05_DStream_t, ptr %130, i32 0, i32 3
  %132 = load ptr, ptr %131, align 8, !tbaa !49
  %133 = getelementptr inbounds i8, ptr %132, i64 1
  %134 = load i8, ptr %133, align 1, !tbaa !24
  %135 = zext i8 %134 to i64
  %136 = shl i64 %135, 8
  %137 = load ptr, ptr %5, align 8, !tbaa !12
  %138 = getelementptr inbounds nuw %struct.BITv05_DStream_t, ptr %137, i32 0, i32 0
  %139 = load i64, ptr %138, align 8, !tbaa !52
  %140 = add i64 %139, %136
  store i64 %140, ptr %138, align 8, !tbaa !52
  br label %141

141:                                              ; preds = %52, %129
  br label %142

142:                                              ; preds = %141
  %143 = load ptr, ptr %6, align 8, !tbaa !12
  %144 = load i64, ptr %7, align 8, !tbaa !29
  %145 = sub i64 %144, 1
  %146 = getelementptr inbounds nuw i8, ptr %143, i64 %145
  %147 = load i8, ptr %146, align 1, !tbaa !24
  %148 = zext i8 %147 to i32
  store i32 %148, ptr %10, align 4, !tbaa !3
  %149 = load i32, ptr %10, align 4, !tbaa !3
  %150 = icmp eq i32 %149, 0
  br i1 %150, label %151, label %152

151:                                              ; preds = %142
  store i64 -1, ptr %4, align 8
  store i32 1, ptr %9, align 4
  br label %166

152:                                              ; preds = %142
  %153 = load i32, ptr %10, align 4, !tbaa !3
  %154 = call i32 @BITv05_highbit32(i32 noundef %153)
  %155 = sub i32 8, %154
  %156 = load ptr, ptr %5, align 8, !tbaa !12
  %157 = getelementptr inbounds nuw %struct.BITv05_DStream_t, ptr %156, i32 0, i32 1
  store i32 %155, ptr %157, align 8, !tbaa !53
  %158 = load i64, ptr %7, align 8, !tbaa !29
  %159 = sub i64 8, %158
  %160 = trunc i64 %159 to i32
  %161 = mul i32 %160, 8
  %162 = load ptr, ptr %5, align 8, !tbaa !12
  %163 = getelementptr inbounds nuw %struct.BITv05_DStream_t, ptr %162, i32 0, i32 1
  %164 = load i32, ptr %163, align 8, !tbaa !53
  %165 = add i32 %164, %161
  store i32 %165, ptr %163, align 8, !tbaa !53
  store i32 0, ptr %9, align 4
  br label %166

166:                                              ; preds = %152, %151
  call void @llvm.lifetime.end.p0(i64 4, ptr %10) #11
  %167 = load i32, ptr %9, align 4
  switch i32 %167, label %173 [
    i32 0, label %168
    i32 1, label %171
  ]

168:                                              ; preds = %166
  br label %169

169:                                              ; preds = %168, %51
  %170 = load i64, ptr %7, align 8, !tbaa !29
  store i64 %170, ptr %4, align 8
  br label %171

171:                                              ; preds = %169, %166, %49, %13
  %172 = load i64, ptr %4, align 8
  ret i64 %172

173:                                              ; preds = %166, %49
  unreachable
}